target datalayout = "e-m:e-p270:32:32-p271:32:32-p272:64:64-i64:64-i128:128-f80:128-n8:16:32:64-S128"
target triple = "x86_64-pc-linux-gnu"

%"class.std::__cxx11::basic_string" = type { %"struct.std::__cxx11::basic_string<char>::_Alloc_hider", i64, %union.anon }
%"struct.std::__cxx11::basic_string<char>::_Alloc_hider" = type { ptr }
%union.anon = type { i64, [8 x i8] }
%"class.open_spiel::dots_and_boxes::Move" = type { i32, i32, i32, i32, i32 }

@.str.15 = private unnamed_addr constant [148 x i8] c"generated/home/dtcxzyw/WorkSpace/Projects/compilers/llvm-opt-benchmark/bench/openspiel/open_spiel/open_spiel/games/dots_and_boxes/dots_and_boxes.cc\00", align 1
@.str.16 = private unnamed_addr constant [2 x i8] c":\00", align 1
@.str.17 = private unnamed_addr constant [2 x i8] c" \00", align 1
@.str.18 = private unnamed_addr constant [21 x i8] c"row_ < num_rows_ + 1\00", align 1
@.str.19 = private unnamed_addr constant [6 x i8] c"\0Arow_\00", align 1
@.str.20 = private unnamed_addr constant [4 x i8] c" = \00", align 1
@.str.21 = private unnamed_addr constant [19 x i8] c", num_rows_ + 1 = \00", align 1
@.str.22 = private unnamed_addr constant [21 x i8] c"col_ < num_cols_ + 1\00", align 1
@.str.23 = private unnamed_addr constant [6 x i8] c"\0Acol_\00", align 1
@.str.24 = private unnamed_addr constant [19 x i8] c", num_cols_ + 1 = \00", align 1

; Function Attrs: mustprogress uwtable
define void @_ZN10open_spiel14dots_and_boxes4Move3SetEiiNS0_15CellOrientationE(ptr noundef nonnull align 4 dereferenceable(20) %0, i32 noundef %1, i32 noundef %2, i32 noundef %3) #4 align 2 personality ptr @__gxx_personality_v0 {
  %5 = alloca ptr, align 8
  %6 = alloca i32, align 4
  %7 = alloca i32, align 4
  %8 = alloca i32, align 4
  %9 = alloca i32, align 4
  %10 = alloca i32, align 4
  %11 = alloca %"class.std::__cxx11::basic_string", align 8
  %12 = alloca i32, align 4
  %13 = alloca ptr, align 8
  %14 = alloca i32, align 4
  %15 = alloca i32, align 4
  %16 = alloca i32, align 4
  %17 = alloca %"class.std::__cxx11::basic_string", align 8
  %18 = alloca i32, align 4
  store ptr %0, ptr %5, align 8
  store i32 %1, ptr %6, align 4
  store i32 %2, ptr %7, align 4
  store i32 %3, ptr %8, align 4
  %19 = load ptr, ptr %5, align 8
  %20 = load i32, ptr %6, align 4
  %21 = getelementptr inbounds nuw %"class.open_spiel::dots_and_boxes::Move", ptr %19, i32 0, i32 0
  store i32 %20, ptr %21, align 4
  %22 = load i32, ptr %7, align 4
  %23 = getelementptr inbounds nuw %"class.open_spiel::dots_and_boxes::Move", ptr %19, i32 0, i32 1
  store i32 %22, ptr %23, align 4
  br label %24

24:                                               ; preds = %4
  %25 = getelementptr inbounds nuw %"class.open_spiel::dots_and_boxes::Move", ptr %19, i32 0, i32 0
  %26 = load i32, ptr %25, align 4
  store i32 %26, ptr %9, align 4
  %27 = getelementptr inbounds nuw %"class.open_spiel::dots_and_boxes::Move", ptr %19, i32 0, i32 3
  %28 = load i32, ptr %27, align 4
  %29 = add nsw i32 %28, 1
  store i32 %29, ptr %10, align 4
  %30 = load i32, ptr %9, align 4
  %31 = load i32, ptr %10, align 4
  %32 = icmp slt i32 %30, %31
  br i1 %32, label %39, label %33

33:                                               ; preds = %24
  store i32 143, ptr %12, align 4
  call void @_ZN10open_spiel8internal11SpielStrCatIJRA148_KcRA2_S2_iS6_RA21_S2_RA6_S2_RA4_S2_RiRA19_S2_SD_EEENSt7__cxx1112basic_stringIcSt11char_traitsIcESaIcEEEDpOT_(ptr dead_on_unwind writable sret(%"class.std::__cxx11::basic_string") align 8 %11, ptr noundef nonnull align 1 dereferenceable(148) @.str.15, ptr noundef nonnull align 1 dereferenceable(2) @.str.16, ptr noundef nonnull align 4 dereferenceable(4) %12, ptr noundef nonnull align 1 dereferenceable(2) @.str.17, ptr noundef nonnull align 1 dereferenceable(21) @.str.18, ptr noundef nonnull align 1 dereferenceable(6) @.str.19, ptr noundef nonnull align 1 dereferenceable(4) @.str.20, ptr noundef nonnull align 4 dereferenceable(4) %9, ptr noundef nonnull align 1 dereferenceable(19) @.str.21, ptr noundef nonnull align 4 dereferenceable(4) %10)
  invoke void @_ZN10open_spiel15SpielFatalErrorERKNSt7__cxx1112basic_stringIcSt11char_traitsIcESaIcEEE(ptr noundef nonnull align 8 dereferenceable(32) %11) #15
          to label %34 unwind label %35

34:                                               ; preds = %33
  unreachable

35:                                               ; preds = %33
  %36 = landingpad { ptr, i32 }
          cleanup
  %37 = extractvalue { ptr, i32 } %36, 0
  store ptr %37, ptr %13, align 8
  %38 = extractvalue { ptr, i32 } %36, 1
  store i32 %38, ptr %14, align 4
  call void @_ZNSt7__cxx1112basic_stringIcSt11char_traitsIcESaIcEED1Ev(ptr noundef nonnull align 8 dereferenceable(32) %11) #3
  br label %60

39:                                               ; preds = %24
  br label %40

40:                                               ; preds = %39
  br label %41

41:                                               ; preds = %40
  %42 = getelementptr inbounds nuw %"class.open_spiel::dots_and_boxes::Move", ptr %19, i32 0, i32 1
  %43 = load i32, ptr %42, align 4
  store i32 %43, ptr %15, align 4
  %44 = getelementptr inbounds nuw %"class.open_spiel::dots_and_boxes::Move", ptr %19, i32 0, i32 4
  %45 = load i32, ptr %44, align 4
  %46 = add nsw i32 %45, 1
  store i32 %46, ptr %16, align 4
  %47 = load i32, ptr %15, align 4
  %48 = load i32, ptr %16, align 4
  %49 = icmp slt i32 %47, %48
  br i1 %49, label %56, label %50

50:                                               ; preds = %41
  store i32 144, ptr %18, align 4
  call void @_ZN10open_spiel8internal11SpielStrCatIJRA148_KcRA2_S2_iS6_RA21_S2_RA6_S2_RA4_S2_RiRA19_S2_SD_EEENSt7__cxx1112basic_stringIcSt11char_traitsIcESaIcEEEDpOT_(ptr dead_on_unwind writable sret(%"class.std::__cxx11::basic_string") align 8 %17, ptr noundef nonnull align 1 dereferenceable(148) @.str.15, ptr noundef nonnull align 1 dereferenceable(2) @.str.16, ptr noundef nonnull align 4 dereferenceable(4) %18, ptr noundef nonnull align 1 dereferenceable(2) @.str.17, ptr noundef nonnull align 1 dereferenceable(21) @.str.22, ptr noundef nonnull align 1 dereferenceable(6) @.str.23, ptr noundef nonnull align 1 dereferenceable(4) @.str.20, ptr noundef nonnull align 4 dereferenceable(4) %15, ptr noundef nonnull align 1 dereferenceable(19) @.str.24, ptr noundef nonnull align 4 dereferenceable(4) %16)
  invoke void @_ZN10open_spiel15SpielFatalErrorERKNSt7__cxx1112basic_stringIcSt11char_traitsIcESaIcEEE(ptr noundef nonnull align 8 dereferenceable(32) %17) #15
          to label %51 unwind label %52

51:                                               ; preds = %50
  unreachable

52:                                               ; preds = %50
  %53 = landingpad { ptr, i32 }
          cleanup
  %54 = extractvalue { ptr, i32 } %53, 0
  store ptr %54, ptr %13, align 8
  %55 = extractvalue { ptr, i32 } %53, 1
  store i32 %55, ptr %14, align 4
  call void @_ZNSt7__cxx1112basic_stringIcSt11char_traitsIcESaIcEED1Ev(ptr noundef nonnull align 8 dereferenceable(32) %17) #3
  br label %60

56:                                               ; preds = %41
  br label %57

57:                                               ; preds = %56
  %58 = load i32, ptr %8, align 4
  %59 = getelementptr inbounds nuw %"class.open_spiel::dots_and_boxes::Move", ptr %19, i32 0, i32 2
  store i32 %58, ptr %59, align 4
  ret void

60:                                               ; preds = %52, %35
  %61 = load ptr, ptr %13, align 8
  %62 = load i32, ptr %14, align 4
  %63 = insertvalue { ptr, i32 } poison, ptr %61, 0
  %64 = insertvalue { ptr, i32 } %63, i32 %62, 1
  resume { ptr, i32 } %64
}