; Function Attrs: mustprogress uwtable
define void @_ZN10open_spiel14dots_and_boxes4Move3SetEiiNS0_15CellOrientationE(ptr nocapture noundef nonnull align 4 dereferenceable(20) %0, i32 noundef %1, i32 noundef %2, i32 noundef %3) local_unnamed_addr #3 align 2 personality ptr @__gxx_personality_v0 {
  %5 = alloca i32, align 4
  %6 = alloca i32, align 4
  %7 = alloca %"class.std::__cxx11::basic_string", align 8
  %8 = alloca i32, align 4
  %9 = alloca i32, align 4
  %10 = alloca i32, align 4
  %11 = alloca %"class.std::__cxx11::basic_string", align 8
  %12 = alloca i32, align 4
  store i32 %1, ptr %0, align 4
  %13 = getelementptr inbounds nuw i8, ptr %0, i64 4
  store i32 %2, ptr %13, align 4
  store i32 %1, ptr %5, align 4
  %14 = getelementptr inbounds nuw i8, ptr %0, i64 12
  %15 = load i32, ptr %14, align 4
  %16 = add nsw i32 %15, 1
  store i32 %16, ptr %6, align 4
  %.not = icmp sgt i32 %1, %15
  br i1 %.not, label %17, label %21

17:                                               ; preds = %4
  store i32 143, ptr %8, align 4
  call void @_ZN10open_spiel8internal11SpielStrCatIJRA148_KcRA2_S2_iS6_RA21_S2_RA6_S2_RA4_S2_RiRA19_S2_SD_EEENSt7__cxx1112basic_stringIcSt11char_traitsIcESaIcEEEDpOT_(ptr dead_on_unwind nonnull writable sret(%"class.std::__cxx11::basic_string") align 8 %7, ptr noundef nonnull align 1 dereferenceable(148) @.str.15, ptr noundef nonnull align 1 dereferenceable(2) @.str.16, ptr noundef nonnull align 4 dereferenceable(4) %8, ptr noundef nonnull align 1 dereferenceable(2) @.str.17, ptr noundef nonnull align 1 dereferenceable(21) @.str.18, ptr noundef nonnull align 1 dereferenceable(6) @.str.19, ptr noundef nonnull align 1 dereferenceable(4) @.str.20, ptr noundef nonnull align 4 dereferenceable(4) %5, ptr noundef nonnull align 1 dereferenceable(19) @.str.21, ptr noundef nonnull align 4 dereferenceable(4) %6)
  invoke void @_ZN10open_spiel15SpielFatalErrorERKNSt7__cxx1112basic_stringIcSt11char_traitsIcESaIcEEE(ptr noundef nonnull align 8 dereferenceable(32) %7) #25
          to label %18 unwind label %19

18:                                               ; preds = %17
  unreachable

19:                                               ; preds = %17
  %20 = landingpad { ptr, i32 }
          cleanup
  br label %31

21:                                               ; preds = %4
  store i32 %2, ptr %9, align 4
  %22 = getelementptr inbounds nuw i8, ptr %0, i64 16
  %23 = load i32, ptr %22, align 4
  %24 = add nsw i32 %23, 1
  store i32 %24, ptr %10, align 4
  %.not6 = icmp sgt i32 %2, %23
  br i1 %.not6, label %25, label %29

25:                                               ; preds = %21
  store i32 144, ptr %12, align 4
  call void @_ZN10open_spiel8internal11SpielStrCatIJRA148_KcRA2_S2_iS6_RA21_S2_RA6_S2_RA4_S2_RiRA19_S2_SD_EEENSt7__cxx1112basic_stringIcSt11char_traitsIcESaIcEEEDpOT_(ptr dead_on_unwind nonnull writable sret(%"class.std::__cxx11::basic_string") align 8 %11, ptr noundef nonnull align 1 dereferenceable(148) @.str.15, ptr noundef nonnull align 1 dereferenceable(2) @.str.16, ptr noundef nonnull align 4 dereferenceable(4) %12, ptr noundef nonnull align 1 dereferenceable(2) @.str.17, ptr noundef nonnull align 1 dereferenceable(21) @.str.22, ptr noundef nonnull align 1 dereferenceable(6) @.str.23, ptr noundef nonnull align 1 dereferenceable(4) @.str.20, ptr noundef nonnull align 4 dereferenceable(4) %9, ptr noundef nonnull align 1 dereferenceable(19) @.str.24, ptr noundef nonnull align 4 dereferenceable(4) %10)
  invoke void @_ZN10open_spiel15SpielFatalErrorERKNSt7__cxx1112basic_stringIcSt11char_traitsIcESaIcEEE(ptr noundef nonnull align 8 dereferenceable(32) %11) #25
          to label %26 unwind label %27

26:                                               ; preds = %25
  unreachable

27:                                               ; preds = %25
  %28 = landingpad { ptr, i32 }
          cleanup
  br label %31

29:                                               ; preds = %21
  %30 = getelementptr inbounds nuw i8, ptr %0, i64 8
  store i32 %3, ptr %30, align 4
  ret void

31:                                               ; preds = %27, %19
  %.sink = phi ptr [ %11, %27 ], [ %7, %19 ]
  %.pn = phi { ptr, i32 } [ %28, %27 ], [ %20, %19 ]
  call void @_ZNSt7__cxx1112basic_stringIcSt11char_traitsIcESaIcEED1Ev(ptr noundef nonnull align 8 dereferenceable(32) %.sink) #26
  resume { ptr, i32 } %.pn
}